; Function Attrs: nounwind uwtable
define zeroext range(i8 0, 2) i8 @l_ImportCompletion_isImportCmdCompletionRequest___lambda__1(ptr noundef %0, ptr noundef %1, ptr readnone captures(none) %2) local_unnamed_addr #0 {
  %4 = tail call ptr @l_Lean_Syntax_getArg(ptr noundef %0, ptr noundef nonnull inttoptr (i64 5 to ptr)) #5
  %5 = tail call ptr @l_Lean_Syntax_getArgs(ptr noundef %4) #5
  %6 = ptrtoint ptr %4 to i64
  %7 = and i64 %6, 1
  %.not = icmp eq i64 %7, 0
  br i1 %.not, label %8, label %lean_nat_lt.exit

8:                                                ; preds = %3
  %9 = load i32, ptr %4, align 4, !tbaa !8
  %10 = icmp sgt i32 %9, 1
  br i1 %10, label %11, label %13, !prof !11

11:                                               ; preds = %8
  %12 = add nsw i32 %9, -1
  store i32 %12, ptr %4, align 4, !tbaa !8
  br label %lean_nat_lt.exit

13:                                               ; preds = %8
  %.not.i = icmp eq i32 %9, 0
  br i1 %.not.i, label %lean_nat_lt.exit, label %14

14:                                               ; preds = %13
  tail call void @lean_dec_ref_cold(ptr noundef nonnull %4) #5
  br label %lean_nat_lt.exit

lean_nat_lt.exit:                                 ; preds = %3, %11, %13, %14
  %15 = getelementptr i8, ptr %5, i64 8
  %.val = load i64, ptr %15, align 8, !tbaa !13
  %.mask = and i64 %.val, 9223372036854775807
  %.not34 = icmp eq i64 %.mask, 0
  br i1 %.not34, label %lean_dec.exit23, label %lean_dec.exit21

lean_dec.exit23:                                  ; preds = %lean_nat_lt.exit
  %16 = ptrtoint ptr %5 to i64
  %17 = and i64 %16, 1
  %.not36 = icmp eq i64 %17, 0
  br i1 %.not36, label %18, label %lean_dec.exit22

18:                                               ; preds = %lean_dec.exit23
  %19 = load i32, ptr %5, align 4, !tbaa !8
  %20 = icmp sgt i32 %19, 1
  br i1 %20, label %21, label %23, !prof !11

21:                                               ; preds = %18
  %22 = add nsw i32 %19, -1
  store i32 %22, ptr %5, align 4, !tbaa !8
  br label %lean_dec.exit22

23:                                               ; preds = %18
  %.not.i27 = icmp eq i32 %19, 0
  br i1 %.not.i27, label %lean_dec.exit22, label %24

24:                                               ; preds = %23
  tail call void @lean_dec_ref_cold(ptr noundef nonnull %5) #5
  br label %lean_dec.exit22

lean_dec.exit21:                                  ; preds = %lean_nat_lt.exit
  %25 = tail call zeroext i8 @l_Array_anyMUnsafe_any___at_ImportCompletion_isImportCmdCompletionRequest___spec__2(ptr noundef %1, ptr noundef nonnull %5, i64 noundef 0, i64 noundef %.mask)
  %26 = ptrtoint ptr %5 to i64
  %27 = and i64 %26, 1
  %.not35 = icmp eq i64 %27, 0
  br i1 %.not35, label %28, label %lean_dec.exit

28:                                               ; preds = %lean_dec.exit21
  %29 = load i32, ptr %5, align 4, !tbaa !8
  %30 = icmp sgt i32 %29, 1
  br i1 %30, label %31, label %33, !prof !11

31:                                               ; preds = %28
  %32 = add nsw i32 %29, -1
  store i32 %32, ptr %5, align 4, !tbaa !8
  br label %lean_dec.exit

33:                                               ; preds = %28
  %.not.i31 = icmp eq i32 %29, 0
  br i1 %.not.i31, label %lean_dec.exit, label %34

34:                                               ; preds = %33
  tail call void @lean_dec_ref_cold(ptr noundef nonnull %5) #5
  br label %lean_dec.exit

lean_dec.exit:                                    ; preds = %34, %33, %31, %lean_dec.exit21
  %. = xor i8 %25, 1
  br label %lean_dec.exit22

lean_dec.exit22:                                  ; preds = %lean_dec.exit23, %21, %23, %24, %lean_dec.exit
  %.0 = phi i8 [ %., %lean_dec.exit ], [ 1, %24 ], [ 1, %23 ], [ 1, %21 ], [ 1, %lean_dec.exit23 ]
  ret i8 %.0
}